; Function Attrs: mustprogress nofree norecurse nosync nounwind willreturn memory(argmem: readwrite) uwtable
define void @ossl_statm_get_rtt_info(ptr noundef readonly captures(none) %0, ptr noundef writeonly captures(none) initializes((0, 32)) %1) local_unnamed_addr #0 {
  %3 = getelementptr inbounds nuw i8, ptr %1, i64 24
  %4 = getelementptr inbounds nuw i8, ptr %0, i64 16
  %5 = load i64, ptr %4, align 8, !tbaa !3
  store i64 %5, ptr %3, align 8, !tbaa !3
  %6 = getelementptr inbounds nuw i8, ptr %1, i64 8
  %7 = getelementptr inbounds nuw i8, ptr %0, i64 8
  %8 = load i64, ptr %7, align 8, !tbaa !3
  store i64 %8, ptr %6, align 8, !tbaa !3
  %9 = load i64, ptr %0, align 8, !tbaa !3
  store i64 %9, ptr %1, align 8, !tbaa !3
  %10 = getelementptr inbounds nuw i8, ptr %1, i64 16
  %11 = getelementptr inbounds nuw i8, ptr %0, i64 24
  %12 = load i64, ptr %11, align 8, !tbaa !3
  store i64 %12, ptr %10, align 8, !tbaa !3
  ret void
}